target datalayout = "e-m:e-p270:32:32-p271:32:32-p272:64:64-i64:64-i128:128-f80:128-n8:16:32:64-S128"
target triple = "x86_64-pc-linux-gnu"

%struct.FT_Vector_ = type { i64, i64 }
%struct.FT_StrokeBorderRec_ = type { i32, i32, ptr, ptr, i8, i32, ptr, i8 }

; Function Attrs: nounwind uwtable
define internal i32 @ft_stroke_border_grow(ptr noundef %0, i32 noundef %1) #0 {
  %3 = alloca ptr, align 8
  %4 = alloca i32, align 4
  %5 = alloca i32, align 4
  %6 = alloca i32, align 4
  %7 = alloca i32, align 4
  %8 = alloca i32, align 4
  %9 = alloca ptr, align 8
  store ptr %0, ptr %3, align 8
  store i32 %1, ptr %4, align 4
  %10 = load ptr, ptr %3, align 8
  %11 = getelementptr inbounds %struct.FT_StrokeBorderRec_, ptr %10, i32 0, i32 1
  %12 = load i32, ptr %11, align 4
  store i32 %12, ptr %5, align 4
  %13 = load ptr, ptr %3, align 8
  %14 = getelementptr inbounds %struct.FT_StrokeBorderRec_, ptr %13, i32 0, i32 0
  %15 = load i32, ptr %14, align 8
  %16 = load i32, ptr %4, align 4
  %17 = add i32 %15, %16
  store i32 %17, ptr %6, align 4
  store i32 0, ptr %7, align 4
  %18 = load i32, ptr %6, align 4
  %19 = load i32, ptr %5, align 4
  %20 = icmp ugt i32 %18, %19
  br i1 %20, label %21, label %69

21:                                               ; preds = %2
  %22 = load i32, ptr %5, align 4
  store i32 %22, ptr %8, align 4
  %23 = load ptr, ptr %3, align 8
  %24 = getelementptr inbounds %struct.FT_StrokeBorderRec_, ptr %23, i32 0, i32 6
  %25 = load ptr, ptr %24, align 8
  store ptr %25, ptr %9, align 8
  br label %26

26:                                               ; preds = %30, %21
  %27 = load i32, ptr %8, align 4
  %28 = load i32, ptr %6, align 4
  %29 = icmp ult i32 %27, %28
  br i1 %29, label %30, label %36

30:                                               ; preds = %26
  %31 = load i32, ptr %8, align 4
  %32 = lshr i32 %31, 1
  %33 = add i32 %32, 16
  %34 = load i32, ptr %8, align 4
  %35 = add i32 %34, %33
  store i32 %35, ptr %8, align 4
  br label %26, !llvm.loop !20

36:                                               ; preds = %26
  %37 = load ptr, ptr %9, align 8
  %38 = load i32, ptr %5, align 4
  %39 = zext i32 %38 to i64
  %40 = load i32, ptr %8, align 4
  %41 = zext i32 %40 to i64
  %42 = load ptr, ptr %3, align 8
  %43 = getelementptr inbounds %struct.FT_StrokeBorderRec_, ptr %42, i32 0, i32 2
  %44 = load ptr, ptr %43, align 8
  %45 = call ptr @ft_mem_realloc(ptr noundef %37, i64 noundef 16, i64 noundef %39, i64 noundef %41, ptr noundef %44, ptr noundef %7)
  %46 = load ptr, ptr %3, align 8
  %47 = getelementptr inbounds %struct.FT_StrokeBorderRec_, ptr %46, i32 0, i32 2
  store ptr %45, ptr %47, align 8
  %48 = load i32, ptr %7, align 4
  %49 = icmp ne i32 %48, 0
  br i1 %49, label %64, label %50

50:                                               ; preds = %36
  %51 = load ptr, ptr %9, align 8
  %52 = load i32, ptr %5, align 4
  %53 = zext i32 %52 to i64
  %54 = load i32, ptr %8, align 4
  %55 = zext i32 %54 to i64
  %56 = load ptr, ptr %3, align 8
  %57 = getelementptr inbounds %struct.FT_StrokeBorderRec_, ptr %56, i32 0, i32 3
  %58 = load ptr, ptr %57, align 8
  %59 = call ptr @ft_mem_realloc(ptr noundef %51, i64 noundef 1, i64 noundef %53, i64 noundef %55, ptr noundef %58, ptr noundef %7)
  %60 = load ptr, ptr %3, align 8
  %61 = getelementptr inbounds %struct.FT_StrokeBorderRec_, ptr %60, i32 0, i32 3
  store ptr %59, ptr %61, align 8
  %62 = load i32, ptr %7, align 4
  %63 = icmp ne i32 %62, 0
  br i1 %63, label %64, label %65

64:                                               ; preds = %50, %36
  br label %70

65:                                               ; preds = %50
  %66 = load i32, ptr %8, align 4
  %67 = load ptr, ptr %3, align 8
  %68 = getelementptr inbounds %struct.FT_StrokeBorderRec_, ptr %67, i32 0, i32 1
  store i32 %66, ptr %68, align 4
  br label %69

69:                                               ; preds = %65, %2
  br label %70

70:                                               ; preds = %69, %64
  %71 = load i32, ptr %7, align 4
  ret i32 %71
}

; Function Attrs: nounwind uwtable
define internal i32 @ft_stroke_border_cubicto(ptr noundef %0, ptr noundef %1, ptr noundef %2, ptr noundef %3) #0 {
  %5 = alloca ptr, align 8
  %6 = alloca ptr, align 8
  %7 = alloca ptr, align 8
  %8 = alloca ptr, align 8
  %9 = alloca i32, align 4
  %10 = alloca ptr, align 8
  %11 = alloca ptr, align 8
  store ptr %0, ptr %5, align 8
  store ptr %1, ptr %6, align 8
  store ptr %2, ptr %7, align 8
  store ptr %3, ptr %8, align 8
  br label %12

12:                                               ; preds = %4
  br label %13

13:                                               ; preds = %12
  %14 = load ptr, ptr %5, align 8
  %15 = call i32 @ft_stroke_border_grow(ptr noundef %14, i32 noundef 3)
  store i32 %15, ptr %9, align 4
  %16 = load i32, ptr %9, align 4
  %17 = icmp ne i32 %16, 0
  br i1 %17, label %54, label %18

18:                                               ; preds = %13
  %19 = load ptr, ptr %5, align 8
  %20 = getelementptr inbounds %struct.FT_StrokeBorderRec_, ptr %19, i32 0, i32 2
  %21 = load ptr, ptr %20, align 8
  %22 = load ptr, ptr %5, align 8
  %23 = getelementptr inbounds %struct.FT_StrokeBorderRec_, ptr %22, i32 0, i32 0
  %24 = load i32, ptr %23, align 8
  %25 = zext i32 %24 to i64
  %26 = getelementptr inbounds %struct.FT_Vector_, ptr %21, i64 %25
  store ptr %26, ptr %10, align 8
  %27 = load ptr, ptr %5, align 8
  %28 = getelementptr inbounds %struct.FT_StrokeBorderRec_, ptr %27, i32 0, i32 3
  %29 = load ptr, ptr %28, align 8
  %30 = load ptr, ptr %5, align 8
  %31 = getelementptr inbounds %struct.FT_StrokeBorderRec_, ptr %30, i32 0, i32 0
  %32 = load i32, ptr %31, align 8
  %33 = zext i32 %32 to i64
  %34 = getelementptr inbounds i8, ptr %29, i64 %33
  store ptr %34, ptr %11, align 8
  %35 = load ptr, ptr %10, align 8
  %36 = getelementptr inbounds %struct.FT_Vector_, ptr %35, i64 0
  %37 = load ptr, ptr %6, align 8
  call void @llvm.memcpy.p0.p0.i64(ptr align 8 %36, ptr align 8 %37, i64 16, i1 false)
  %38 = load ptr, ptr %10, align 8
  %39 = getelementptr inbounds %struct.FT_Vector_, ptr %38, i64 1
  %40 = load ptr, ptr %7, align 8
  call void @llvm.memcpy.p0.p0.i64(ptr align 8 %39, ptr align 8 %40, i64 16, i1 false)
  %41 = load ptr, ptr %10, align 8
  %42 = getelementptr inbounds %struct.FT_Vector_, ptr %41, i64 2
  %43 = load ptr, ptr %8, align 8
  call void @llvm.memcpy.p0.p0.i64(ptr align 8 %42, ptr align 8 %43, i64 16, i1 false)
  %44 = load ptr, ptr %11, align 8
  %45 = getelementptr inbounds i8, ptr %44, i64 0
  store i8 2, ptr %45, align 1
  %46 = load ptr, ptr %11, align 8
  %47 = getelementptr inbounds i8, ptr %46, i64 1
  store i8 2, ptr %47, align 1
  %48 = load ptr, ptr %11, align 8
  %49 = getelementptr inbounds i8, ptr %48, i64 2
  store i8 1, ptr %49, align 1
  %50 = load ptr, ptr %5, align 8
  %51 = getelementptr inbounds %struct.FT_StrokeBorderRec_, ptr %50, i32 0, i32 0
  %52 = load i32, ptr %51, align 8
  %53 = add i32 %52, 3
  store i32 %53, ptr %51, align 8
  br label %54

54:                                               ; preds = %18, %13
  %55 = load ptr, ptr %5, align 8
  %56 = getelementptr inbounds %struct.FT_StrokeBorderRec_, ptr %55, i32 0, i32 4
  store i8 0, ptr %56, align 8
  %57 = load i32, ptr %9, align 4
  ret i32 %57
}