; Function Attrs: nounwind uwtable
define internal fastcc i32 @ft_stroke_border_cubicto(ptr noundef nonnull captures(none) %0, ptr noundef nonnull readonly captures(none) %1, ptr noundef nonnull readonly captures(none) %2, ptr noundef nonnull readonly captures(none) %3) unnamed_addr #0 {
  %5 = alloca i32, align 4
  call void @llvm.lifetime.start.p0(i64 4, ptr nonnull %5)
  %6 = getelementptr inbounds nuw i8, ptr %0, i64 4
  %7 = load i32, ptr %6, align 4
  %8 = load i32, ptr %0, align 8
  %9 = add i32 %8, 3
  store i32 0, ptr %5, align 4
  %10 = icmp ugt i32 %9, %7
  br i1 %10, label %11, label %._crit_edge

._crit_edge:                                      ; preds = %4
  %.phi.trans.insert = getelementptr inbounds nuw i8, ptr %0, i64 16
  %.pre18 = load ptr, ptr %.phi.trans.insert, align 8
  br label %33

11:                                               ; preds = %4
  %12 = getelementptr inbounds nuw i8, ptr %0, i64 32
  %13 = load ptr, ptr %12, align 8
  br label %14

14:                                               ; preds = %14, %11
  %.025.i = phi i32 [ %7, %11 ], [ %17, %14 ]
  %15 = lshr i32 %.025.i, 1
  %16 = add i32 %.025.i, 16
  %17 = add i32 %16, %15
  %18 = icmp ult i32 %17, %9
  br i1 %18, label %14, label %19, !llvm.loop !6

19:                                               ; preds = %14
  %20 = zext i32 %7 to i64
  %21 = zext i32 %17 to i64
  %22 = getelementptr inbounds nuw i8, ptr %0, i64 8
  %23 = load ptr, ptr %22, align 8
  %24 = call ptr @ft_mem_realloc(ptr noundef %13, i64 noundef 16, i64 noundef %20, i64 noundef %21, ptr noundef %23, ptr noundef nonnull %5) #11
  store ptr %24, ptr %22, align 8
  %25 = load i32, ptr %5, align 4
  %.not.i = icmp eq i32 %25, 0
  br i1 %.not.i, label %26, label %ft_stroke_border_grow.exit

26:                                               ; preds = %19
  %27 = getelementptr inbounds nuw i8, ptr %0, i64 16
  %28 = load ptr, ptr %27, align 8
  %29 = call ptr @ft_mem_realloc(ptr noundef %13, i64 noundef 1, i64 noundef %20, i64 noundef %21, ptr noundef %28, ptr noundef nonnull %5) #11
  store ptr %29, ptr %27, align 8
  %30 = load i32, ptr %5, align 4
  %.not24.i = icmp eq i32 %30, 0
  br i1 %.not24.i, label %31, label %ft_stroke_border_grow.exit

31:                                               ; preds = %26
  store i32 %17, ptr %6, align 4
  %.pre = load i32, ptr %0, align 8
  br label %33

ft_stroke_border_grow.exit:                       ; preds = %19, %26
  %32 = phi i32 [ %25, %19 ], [ %30, %26 ]
  call void @llvm.lifetime.end.p0(i64 4, ptr nonnull %5)
  br label %47

33:                                               ; preds = %._crit_edge, %31
  %34 = phi ptr [ %.pre18, %._crit_edge ], [ %29, %31 ]
  %35 = phi i32 [ %8, %._crit_edge ], [ %.pre, %31 ]
  call void @llvm.lifetime.end.p0(i64 4, ptr nonnull %5)
  %36 = getelementptr inbounds nuw i8, ptr %0, i64 8
  %37 = load ptr, ptr %36, align 8
  %38 = zext i32 %35 to i64
  %39 = getelementptr inbounds nuw %struct.FT_Vector_, ptr %37, i64 %38
  %40 = getelementptr inbounds nuw i8, ptr %34, i64 %38
  call void @llvm.memcpy.p0.p0.i64(ptr noundef nonnull align 8 dereferenceable(16) %39, ptr noundef nonnull align 8 dereferenceable(16) %1, i64 16, i1 false)
  %41 = getelementptr inbounds nuw i8, ptr %39, i64 16
  call void @llvm.memcpy.p0.p0.i64(ptr noundef nonnull align 8 dereferenceable(16) %41, ptr noundef nonnull align 8 dereferenceable(16) %2, i64 16, i1 false)
  %42 = getelementptr inbounds nuw i8, ptr %39, i64 32
  call void @llvm.memcpy.p0.p0.i64(ptr noundef nonnull align 8 dereferenceable(16) %42, ptr noundef nonnull align 8 dereferenceable(16) %3, i64 16, i1 false)
  store i8 2, ptr %40, align 1
  %43 = getelementptr inbounds nuw i8, ptr %40, i64 1
  store i8 2, ptr %43, align 1
  %44 = getelementptr inbounds nuw i8, ptr %40, i64 2
  store i8 1, ptr %44, align 1
  %45 = load i32, ptr %0, align 8
  %46 = add i32 %45, 3
  store i32 %46, ptr %0, align 8
  br label %47

47:                                               ; preds = %ft_stroke_border_grow.exit, %33
  %48 = phi i32 [ 0, %33 ], [ %32, %ft_stroke_border_grow.exit ]
  %49 = getelementptr inbounds nuw i8, ptr %0, i64 24
  store i8 0, ptr %49, align 8
  ret i32 %48
}